(dp0
I1
cnumpy.core.multiarray
_reconstruct
p1
(cnumpy
ndarray
p2
(I0
tp3
S'b'
p4
tp5
Rp6
(I1
(I2
tp7
cnumpy
dtype
p8
(S'f8'
p9
I0
I1
tp10
Rp11
(I3
S'<'
p12
NNNI-1
I-1
I0
tp13
bI00
S'\x15{\x94\t\xbfq{@\xd9\x8dinf\xd5X@'
p14
tp15
bsI2
g1
(g2
(I0
tp16
g4
tp17
Rp18
(I1
(I2
tp19
g11
I00
S'<%\xd8\x91\x89\xc9U@}j*\xbd\xec\xf3y@'
p20
tp21
bsI3
g1
(g2
(I0
tp22
g4
tp23
Rp24
(I1
(I2
tp25
g11
I00
S'\xae\x9e\xd9W\x1d@f@\xa7vNk\xb0GO@'
p26
tp27
bsI4
g1
(g2
(I0
tp28
g4
tp29
Rp30
(I1
(I2
tp31
g11
I00
S'\x06\x8c\xc1ZnLP@TlLw*\xa2a@'
p32
tp33
bsI5
g1
(g2
(I0
tp34
g4
tp35
Rp36
(I1
(I2
tp37
g11
I00
S'\xa5fT\x02\\\x88W@\xf7\x0cK\xbb\xcd\xfai@'
p38
tp39
bsI6
g1
(g2
(I0
tp40
g4
tp41
Rp42
(I1
(I2
tp43
g11
I00
S'\xec1\x7f\x9dp\xb8I@\xc9\xfb\x8e\xc5\x08\x15r@'
p44
tp45
bsI7
g1
(g2
(I0
tp46
g4
tp47
Rp48
(I1
(I2
tp49
g11
I00
S';P\xeb[\xb8eX@S\xe73\x12\tfu@'
p50
tp51
bsI8
g1
(g2
(I0
tp52
g4
tp53
Rp54
(I1
(I2
tp55
g11
I00
S'\xd0\xa5a\xceF\x8ca@)\x00\x9c}\xe5\xc1u@'
p56
tp57
bsI9
g1
(g2
(I0
tp58
g4
tp59
Rp60
(I1
(I2
tp61
g11
I00
S'\xdc\xea\xe3\xe3\xc9\x06j@\x10\x18\xc6.\x89\x7fw@'
p62
tp63
bsI10
g1
(g2
(I0
tp64
g4
tp65
Rp66
(I1
(I2
tp67
g11
I00
S'?7\x0e\x88\xfe\xd7o@t3\x85;#)z@'
p68
tp69
bsI11
g1
(g2
(I0
tp70
g4
tp71
Rp72
(I1
(I2
tp73
g11
I00
S'l\x13k\x9c\xa1\x86{@=\x1364V\xf5y@'
p74
tp75
bsI12
g1
(g2
(I0
tp76
g4
tp77
Rp78
(I1
(I2
tp79
g11
I00
S'\xf8k\xbbLSuv@6x\xc9\xc91.b@'
p80
tp81
bsI13
g1
(g2
(I0
tp82
g4
tp83
Rp84
(I1
(I2
tp85
g11
I00
S'\x9fT\xdc\xcf\xb14s@\xf4\xe0\xfbIVld@'
p86
tp87
bsI14
g1
(g2
(I0
tp88
g4
tp89
Rp90
(I1
(I2
tp91
g11
I00
S'\xecT\xa1\x06\x9a(|@F<1`\xb1\xd7t@'
p92
tp93
bsI15
g1
(g2
(I0
tp94
g4
tp95
Rp96
(I1
(I2
tp97
g11
I00
S'5\x7f(\xba\xe6lx@\x92\xbb\x98M_\xf7k@'
p98
tp99
bsI16
g1
(g2
(I0
tp100
g4
tp101
Rp102
(I1
(I2
tp103
g11
I00
S'\x99\xec/\xa3.\x00z@o\xb2@T\x99\xf6n@'
p104
tp105
bsI17
g1
(g2
(I0
tp106
g4
tp107
Rp108
(I1
(I2
tp109
g11
I00
S'\xfa\xd2\x0e\x1bI\xc2o@Q\xa4k\xc5v\xdbt@'
p110
tp111
bsI18
g1
(g2
(I0
tp112
g4
tp113
Rp114
(I1
(I2
tp115
g11
I00
S"\x90\xdcu#\xad\x1fp@2\xd8\xd5\xed\xfb'C@"
p116
tp117
bsI19
g1
(g2
(I0
tp118
g4
tp119
Rp120
(I1
(I2
tp121
g11
I00
S'\xa7t\xa6\x17\xfe\xaap@o\xec_(o\xa2Y@'
p122
tp123
bsI20
g1
(g2
(I0
tp124
g4
tp125
Rp126
(I1
(I2
tp127
g11
I00
S'Y4i\x18S\x11n@\xa7pf\x027X_@'
p128
tp129
bsI21
g1
(g2
(I0
tp130
g4
tp131
Rp132
(I1
(I2
tp133
g11
I00
S'\x80k\x8a\x08\xa4Ip@\xd8K\xca\xf4\x16|g@'
p134
tp135
bsI22
g1
(g2
(I0
tp136
g4
tp137
Rp138
(I1
(I2
tp139
g11
I00
S'\xb5\xab\x1df\xfa\xbbp@y[\xc3h\xa0wn@'
p140
tp141
bsI23
g1
(g2
(I0
tp142
g4
tp143
Rp144
(I1
(I2
tp145
g11
I00
S'\xd7\x82\x08\x80\xb0\xb9d@\x91\xf8\x99\x9d\xde\x04k@'
p146
tp147
bsI24
g1
(g2
(I0
tp148
g4
tp149
Rp150
(I1
(I2
tp151
g11
I00
S'I\xe3\x18\xa8\xfcei@\xf4\xc1\x01\xe5\x04\xefr@'
p152
tp153
bsI25
g1
(g2
(I0
tp154
g4
tp155
Rp156
(I1
(I2
tp157
g11
I00
S'S1m\x93@\x0cj@\x04\xa5\xa1\xe8\xc9\x18p@'
p158
tp159
bsI26
g1
(g2
(I0
tp160
g4
tp161
Rp162
(I1
(I2
tp163
g11
I00
S'Y\xc5\xbd\xf2<\x9cs@\xd6\x9e6\xe0|\xc1t@'
p164
tp165
bsI27
g1
(g2
(I0
tp166
g4
tp167
Rp168
(I1
(I2
tp169
g11
I00
S'8\x0f+\x14,~t@)\x94\xe7E\x86\xe7m@'
p170
tp171
bsI28
g1
(g2
(I0
tp172
g4
tp173
Rp174
(I1
(I2
tp175
g11
I00
S'\xbaAD\x19\x83mv@\x9f\xe4\\\x8c`Jr@'
p176
tp177
bs.